; Function Attrs: mustprogress nounwind uwtable
define dso_local void @_ZN24btConstraintSolverPoolMtD2Ev(ptr noundef nonnull align 8 captures(none) dereferenceable(44) initializes((0, 8)) %0) unnamed_addr #4 align 2 personality ptr @__gxx_personality_v0 {
  store ptr getelementptr inbounds nuw inrange(-16, 56) (i8, ptr @_ZTV24btConstraintSolverPoolMt, i64 16), ptr %0, align 8, !tbaa !34
  %2 = getelementptr inbounds nuw i8, ptr %0, i64 12
  %3 = load i32, ptr %2, align 4, !tbaa !13
  %4 = icmp sgt i32 %3, 0
  br i1 %4, label %.lr.ph, label %._crit_edge

.lr.ph:                                           ; preds = %1
  %5 = getelementptr inbounds nuw i8, ptr %0, i64 24
  br label %18

._crit_edge:                                      ; preds = %28, %1
  %6 = getelementptr inbounds nuw i8, ptr %0, i64 24
  %7 = load ptr, ptr %6, align 8, !tbaa !4
  %.not.i.i.i = icmp eq ptr %7, null
  br i1 %.not.i.i.i, label %_ZN20btAlignedObjectArrayIN24btConstraintSolverPoolMt12ThreadSolverEED2Ev.exit, label %8

8:                                                ; preds = %._crit_edge
  %9 = getelementptr inbounds nuw i8, ptr %0, i64 32
  %10 = load i8, ptr %9, align 8, !tbaa !26, !range !27, !noundef !28
  %11 = trunc nuw i8 %10 to i1
  br i1 %11, label %12, label %_ZN20btAlignedObjectArrayIN24btConstraintSolverPoolMt12ThreadSolverEED2Ev.exit

12:                                               ; preds = %8
  invoke void @_Z21btAlignedFreeInternalPv(ptr noundef nonnull %7)
          to label %_ZN20btAlignedObjectArrayIN24btConstraintSolverPoolMt12ThreadSolverEED2Ev.exit unwind label %13

13:                                               ; preds = %12
  %14 = landingpad { ptr, i32 }
          catch ptr null
  %15 = extractvalue { ptr, i32 } %14, 0
  tail call void @__clang_call_terminate(ptr %15) #12
  unreachable

_ZN20btAlignedObjectArrayIN24btConstraintSolverPoolMt12ThreadSolverEED2Ev.exit: ; preds = %._crit_edge, %8, %12
  %16 = getelementptr inbounds nuw i8, ptr %0, i64 32
  store i8 1, ptr %16, align 8, !tbaa !26
  store ptr null, ptr %6, align 8, !tbaa !4
  store i32 0, ptr %2, align 4, !tbaa !13
  %17 = getelementptr inbounds nuw i8, ptr %0, i64 16
  store i32 0, ptr %17, align 8, !tbaa !18
  ret void

18:                                               ; preds = %.lr.ph, %28
  %19 = phi i32 [ %3, %.lr.ph ], [ %29, %28 ]
  %indvars.iv = phi i64 [ 0, %.lr.ph ], [ %indvars.iv.next, %28 ]
  %20 = load ptr, ptr %5, align 8, !tbaa !4
  %21 = getelementptr inbounds nuw %"struct.btConstraintSolverPoolMt::ThreadSolver", ptr %20, i64 %indvars.iv
  %22 = load ptr, ptr %21, align 8, !tbaa !30
  %23 = icmp eq ptr %22, null
  br i1 %23, label %28, label %24

24:                                               ; preds = %18
  %25 = load ptr, ptr %22, align 8, !tbaa !34
  %26 = getelementptr inbounds nuw i8, ptr %25, i64 8
  %27 = load ptr, ptr %26, align 8
  tail call void %27(ptr noundef nonnull align 8 dereferenceable(8) %22) #11
  %.pre = load i32, ptr %2, align 4, !tbaa !13
  br label %28

28:                                               ; preds = %24, %18
  %29 = phi i32 [ %.pre, %24 ], [ %19, %18 ]
  store ptr null, ptr %21, align 8, !tbaa !30
  %indvars.iv.next = add nuw nsw i64 %indvars.iv, 1
  %30 = sext i32 %29 to i64
  %31 = icmp slt i64 %indvars.iv.next, %30
  br i1 %31, label %18, label %._crit_edge, !llvm.loop !45
}